target datalayout = "e-m:e-p270:32:32-p271:32:32-p272:64:64-i64:64-i128:128-f80:128-n8:16:32:64-S128"
target triple = "x86_64-pc-linux-gnu"

%struct.H5FD_core_t = type { %struct.H5FD_t, ptr, ptr, i64, i64, i64, i8, i8, i64, i8, i32, i64, i64, i8, %struct.H5FD_file_image_callbacks_t, ptr }
%struct.H5FD_t = type { i64, ptr, i64, i32, i64, i64, i64, i64, i64, i8 }
%struct.H5FD_file_image_callbacks_t = type { ptr, ptr, ptr, ptr, ptr, ptr, ptr }

@H5FD_init_g = external global i8, align 1
@H5_libterm_g = external global i8, align 1
@.str.1 = private unnamed_addr constant [102 x i8] c"generated/home/dtcxzyw/WorkSpace/Projects/compilers/llvm-opt-benchmark/bench/hdf5/hdf5/src/H5FDcore.c\00", align 1
@H5E_FILE_g = external global i64, align 8
@H5E_BADFILE_g = external global i64, align 8
@.str.22 = private unnamed_addr constant [37 x i8] c"%s, errno = %d, error message = '%s'\00", align 1
@__func__.H5FD__core_lock = private unnamed_addr constant [16 x i8] c"H5FD__core_lock\00", align 1
@.str.51 = private unnamed_addr constant [20 x i8] c"unable to lock file\00", align 1

; Function Attrs: nounwind uwtable
define internal i32 @H5FD__core_lock(ptr noundef %0, i1 noundef zeroext %1) #0 {
  %3 = alloca i32, align 4
  %4 = alloca ptr, align 8
  %5 = alloca i8, align 1
  %6 = alloca ptr, align 8
  %7 = alloca i32, align 4
  %8 = alloca i32, align 4
  %9 = alloca i8, align 1
  %10 = alloca i32, align 4
  %11 = alloca i32, align 4
  store ptr %0, ptr %4, align 8, !tbaa !29
  %12 = zext i1 %1 to i8
  store i8 %12, ptr %5, align 1, !tbaa !7
  call void @llvm.lifetime.start.p0(i64 8, ptr %6) #12
  %13 = load ptr, ptr %4, align 8, !tbaa !29
  store ptr %13, ptr %6, align 8, !tbaa !31
  call void @llvm.lifetime.start.p0(i64 4, ptr %7) #12
  call void @llvm.lifetime.start.p0(i64 4, ptr %8) #12
  store i32 0, ptr %8, align 4, !tbaa !3
  call void @llvm.lifetime.start.p0(i64 1, ptr %9) #12
  store i8 0, ptr %9, align 1, !tbaa !7
  %14 = load i8, ptr @H5FD_init_g, align 1, !tbaa !7, !range !9, !noundef !10
  %15 = trunc i8 %14 to i1
  br i1 %15, label %20, label %16

16:                                               ; preds = %2
  %17 = load i8, ptr @H5_libterm_g, align 1, !tbaa !7, !range !9, !noundef !10
  %18 = trunc i8 %17 to i1
  %19 = xor i1 %18, true
  br label %20

20:                                               ; preds = %16, %2
  %21 = phi i1 [ true, %2 ], [ %19, %16 ]
  %22 = xor i1 %21, true
  %23 = xor i1 %22, true
  %24 = zext i1 %23 to i32
  %25 = sext i32 %24 to i64
  %26 = call i64 @llvm.expect.i64(i64 %25, i64 1)
  %27 = icmp ne i64 %26, 0
  br i1 %27, label %28, label %86

28:                                               ; preds = %20
  %29 = load ptr, ptr %6, align 8, !tbaa !31
  %30 = getelementptr inbounds nuw %struct.H5FD_core_t, ptr %29, i32 0, i32 10
  %31 = load i32, ptr %30, align 4, !tbaa !40
  %32 = icmp sge i32 %31, 0
  br i1 %32, label %33, label %84

33:                                               ; preds = %28
  %34 = load i8, ptr %5, align 1, !tbaa !7, !range !9, !noundef !10
  %35 = trunc i8 %34 to i1
  %36 = select i1 %35, i32 2, i32 1
  store i32 %36, ptr %7, align 4, !tbaa !3
  %37 = load ptr, ptr %6, align 8, !tbaa !31
  %38 = getelementptr inbounds nuw %struct.H5FD_core_t, ptr %37, i32 0, i32 10
  %39 = load i32, ptr %38, align 4, !tbaa !40
  %40 = load i32, ptr %7, align 4, !tbaa !3
  %41 = or i32 %40, 4
  %42 = call i32 @flock(i32 noundef %39, i32 noundef %41) #12
  %43 = icmp slt i32 %42, 0
  br i1 %43, label %44, label %83

44:                                               ; preds = %33
  %45 = load ptr, ptr %6, align 8, !tbaa !31
  %46 = getelementptr inbounds nuw %struct.H5FD_core_t, ptr %45, i32 0, i32 9
  %47 = load i8, ptr %46, align 8, !tbaa !49, !range !9, !noundef !10
  %48 = trunc i8 %47 to i1
  br i1 %48, label %49, label %55

49:                                               ; preds = %44
  %50 = call ptr @__errno_location() #15
  %51 = load i32, ptr %50, align 4, !tbaa !3
  %52 = icmp eq i32 38, %51
  br i1 %52, label %53, label %55

53:                                               ; preds = %49
  %54 = call ptr @__errno_location() #15
  store i32 0, ptr %54, align 4, !tbaa !3
  br label %82

55:                                               ; preds = %49, %44
  call void @llvm.lifetime.start.p0(i64 4, ptr %10) #12
  %56 = call ptr @__errno_location() #15
  %57 = load i32, ptr %56, align 4, !tbaa !3
  store i32 %57, ptr %10, align 4, !tbaa !3
  br label %58

58:                                               ; preds = %55
  br label %59

59:                                               ; preds = %58
  br label %60

60:                                               ; preds = %59
  %61 = load i64, ptr @H5E_FILE_g, align 8, !tbaa !11
  %62 = load i64, ptr @H5E_BADFILE_g, align 8, !tbaa !11
  %63 = load i32, ptr %10, align 4, !tbaa !3
  %64 = load i32, ptr %10, align 4, !tbaa !3
  %65 = call ptr @strerror(i32 noundef %64) #12
  %66 = call i32 (ptr, ptr, i32, i64, i64, ptr, ...) @H5E_printf_stack(ptr noundef @.str.1, ptr noundef @__func__.H5FD__core_lock, i32 noundef 1636, i64 noundef %61, i64 noundef %62, ptr noundef @.str.22, ptr noundef @.str.51, i32 noundef %63, ptr noundef %65)
  br label %67

67:                                               ; preds = %60
  br label %68

68:                                               ; preds = %67
  store i8 1, ptr %9, align 1, !tbaa !7
  %69 = load i8, ptr %9, align 1, !tbaa !7, !range !9, !noundef !10
  %70 = trunc i8 %69 to i1
  %71 = zext i1 %70 to i8
  store i8 %71, ptr %9, align 1, !tbaa !7
  br label %72

72:                                               ; preds = %68
  br label %73

73:                                               ; preds = %72
  br label %74

74:                                               ; preds = %73
  store i32 -1, ptr %8, align 4, !tbaa !3
  store i32 10, ptr %11, align 4
  br label %79

75:                                               ; No predecessors!
  br label %76

76:                                               ; preds = %75
  br label %77

77:                                               ; preds = %76
  br label %78

78:                                               ; preds = %77
  store i32 0, ptr %11, align 4
  br label %79

79:                                               ; preds = %74, %78
  call void @llvm.lifetime.end.p0(i64 4, ptr %10) #12
  %80 = load i32, ptr %11, align 4
  switch i32 %80, label %88 [
    i32 0, label %81
    i32 10, label %85
  ]

81:                                               ; preds = %79
  br label %82

82:                                               ; preds = %81, %53
  br label %83

83:                                               ; preds = %82, %33
  br label %84

84:                                               ; preds = %83, %28
  br label %85

85:                                               ; preds = %84, %79
  br label %86

86:                                               ; preds = %85, %20
  %87 = load i32, ptr %8, align 4, !tbaa !3
  store i32 %87, ptr %3, align 4
  store i32 1, ptr %11, align 4
  br label %88

88:                                               ; preds = %86, %79
  call void @llvm.lifetime.end.p0(i64 1, ptr %9) #12
  call void @llvm.lifetime.end.p0(i64 4, ptr %8) #12
  call void @llvm.lifetime.end.p0(i64 4, ptr %7) #12
  call void @llvm.lifetime.end.p0(i64 8, ptr %6) #12
  %89 = load i32, ptr %3, align 4
  ret i32 %89
}