; Function Attrs: nounwind uwtable
define internal range(i32 -1, 1) i32 @H5FD__core_lock(ptr noundef readonly captures(none) %0, i1 noundef zeroext %1) #0 {
  %3 = load i8, ptr @H5FD_init_g, align 1, !tbaa !3, !range !7, !noundef !8
  %4 = trunc nuw i8 %3 to i1
  %5 = load i8, ptr @H5_libterm_g, align 1, !range !7
  %6 = trunc nuw i8 %5 to i1
  %7 = xor i1 %6, true
  %8 = select i1 %4, i1 true, i1 %7
  br i1 %8, label %9, label %31, !prof !9

9:                                                ; preds = %2
  %10 = getelementptr inbounds nuw i8, ptr %0, i64 140
  %11 = load i32, ptr %10, align 4, !tbaa !30
  %12 = icmp sgt i32 %11, -1
  br i1 %12, label %13, label %31

13:                                               ; preds = %9
  %14 = select i1 %1, i32 6, i32 5
  %15 = tail call i32 @flock(i32 noundef %11, i32 noundef %14) #18
  %16 = icmp slt i32 %15, 0
  br i1 %16, label %17, label %31

17:                                               ; preds = %13
  %18 = getelementptr inbounds nuw i8, ptr %0, i64 136
  %19 = load i8, ptr %18, align 8, !tbaa !41, !range !7, !noundef !8
  %20 = trunc nuw i8 %19 to i1
  %21 = tail call ptr @__errno_location() #21
  br i1 %20, label %22, label %._crit_edge

22:                                               ; preds = %17
  %23 = load i32, ptr %21, align 4, !tbaa !36
  %24 = icmp eq i32 %23, 38
  br i1 %24, label %25, label %._crit_edge

25:                                               ; preds = %22
  store i32 0, ptr %21, align 4, !tbaa !36
  br label %31

._crit_edge:                                      ; preds = %17, %22
  %26 = load i32, ptr %21, align 4, !tbaa !36
  %27 = load i64, ptr @H5E_FILE_g, align 8, !tbaa !10
  %28 = load i64, ptr @H5E_BADFILE_g, align 8, !tbaa !10
  %29 = tail call ptr @strerror(i32 noundef %26) #18
  %30 = tail call i32 (ptr, ptr, i32, i64, i64, ptr, ...) @H5E_printf_stack(ptr noundef nonnull @.str.1, ptr noundef nonnull @__func__.H5FD__core_lock, i32 noundef 1636, i64 noundef %27, i64 noundef %28, ptr noundef nonnull @.str.22, ptr noundef nonnull @.str.51, i32 noundef %26, ptr noundef %29) #18
  br label %31

31:                                               ; preds = %2, %9, %25, %13, %._crit_edge
  %.011 = phi i32 [ 0, %25 ], [ -1, %._crit_edge ], [ 0, %13 ], [ 0, %9 ], [ 0, %2 ]
  ret i32 %.011
}